; ModuleID = 'source-C-CXX/27/24.c'
source_filename = "source-C-CXX/27/24.c"
target datalayout = "e-m:e-p270:32:32-p271:32:32-p272:64:64-i64:64-f80:128-n8:16:32:64-S128"
target triple = "x86_64-pc-linux-gnu"

@.str = private unnamed_addr constant [4 x i8] c"%d,\00", align 1
@.str.1 = private unnamed_addr constant [3 x i8] c"%d\00", align 1

; Function Attrs: nounwind sspstrong uwtable
define dso_local void @main() local_unnamed_addr #0 {
  %1 = alloca [1000 x i8], align 16
  %2 = alloca [1000 x i32], align 16
  %3 = getelementptr inbounds [1000 x i8], [1000 x i8]* %1, i64 0, i64 0
  call void @llvm.lifetime.start.p0i8(i64 1000, i8* nonnull %3) #6
  %4 = bitcast [1000 x i32]* %2 to i8*
  call void @llvm.lifetime.start.p0i8(i64 4000, i8* nonnull %4) #6
  call void @llvm.memset.p0i8.i64(i8* noundef nonnull align 16 dereferenceable(4000) %4, i8 0, i64 4000, i1 false)
  %5 = call i32 (i8*, ...) bitcast (i32 (...)* @gets to i32 (i8*, ...)*)(i8* nonnull %3) #6
  %6 = call i64 @strlen(i8* noundef nonnull %3) #7
  %7 = trunc i64 %6 to i32
  %8 = icmp sgt i32 %7, 0
  br i1 %8, label %13, label %45

9:                                                ; preds = %28
  %10 = icmp eq i32 %30, 0
  br i1 %10, label %45, label %11

11:                                               ; preds = %9
  %12 = zext i32 %30 to i64
  br label %38

13:                                               ; preds = %0, %28
  %14 = phi i32 [ %36, %28 ], [ 0, %0 ]
  %15 = phi i32 [ %30, %28 ], [ 0, %0 ]
  %16 = sext i32 %14 to i64
  %17 = getelementptr inbounds [1000 x i8], [1000 x i8]* %1, i64 0, i64 %16
  %18 = load i8, i8* %17, align 1, !tbaa !5
  %19 = icmp eq i8 %18, 32
  %20 = zext i1 %19 to i32
  %21 = icmp eq i8 %18, 32
  br i1 %21, label %22, label %28, !llvm.loop !8

22:                                               ; preds = %13, %22
  %23 = phi i64 [ %24, %22 ], [ %16, %13 ]
  %24 = add i64 %23, 1
  %25 = getelementptr inbounds [1000 x i8], [1000 x i8]* %1, i64 0, i64 %24
  %26 = load i8, i8* %25, align 1, !tbaa !5
  %27 = icmp eq i8 %26, 32
  br i1 %27, label %22, label %28, !llvm.loop !8

28:                                               ; preds = %22, %13
  %29 = phi i64 [ %16, %13 ], [ %24, %22 ]
  %30 = add nuw nsw i32 %15, %20
  %31 = trunc i64 %29 to i32
  %32 = zext i32 %30 to i64
  %33 = getelementptr inbounds [1000 x i32], [1000 x i32]* %2, i64 0, i64 %32
  %34 = load i32, i32* %33, align 4, !tbaa !10
  %35 = add nsw i32 %34, 1
  store i32 %35, i32* %33, align 4, !tbaa !10
  %36 = add nsw i32 %31, 1
  %37 = icmp slt i32 %36, %7
  br i1 %37, label %13, label %9, !llvm.loop !12

38:                                               ; preds = %11, %38
  %39 = phi i64 [ 0, %11 ], [ %43, %38 ]
  %40 = getelementptr inbounds [1000 x i32], [1000 x i32]* %2, i64 0, i64 %39
  %41 = load i32, i32* %40, align 4, !tbaa !10
  %42 = call i32 (i8*, ...) @printf(i8* nonnull dereferenceable(1) getelementptr inbounds ([4 x i8], [4 x i8]* @.str, i64 0, i64 0), i32 %41)
  %43 = add nuw nsw i64 %39, 1
  %44 = icmp eq i64 %43, %12
  br i1 %44, label %45, label %38, !llvm.loop !13

45:                                               ; preds = %38, %9, %0
  %46 = phi i64 [ 0, %0 ], [ 0, %9 ], [ %12, %38 ]
  %47 = getelementptr inbounds [1000 x i32], [1000 x i32]* %2, i64 0, i64 %46
  %48 = load i32, i32* %47, align 4, !tbaa !10
  %49 = call i32 (i8*, ...) @printf(i8* nonnull dereferenceable(1) getelementptr inbounds ([3 x i8], [3 x i8]* @.str.1, i64 0, i64 0), i32 %48)
  call void @llvm.lifetime.end.p0i8(i64 4000, i8* nonnull %4) #6
  call void @llvm.lifetime.end.p0i8(i64 1000, i8* nonnull %3) #6
  ret void
}

; Function Attrs: argmemonly mustprogress nofree nosync nounwind willreturn
declare void @llvm.lifetime.start.p0i8(i64 immarg, i8* nocapture) #1

; Function Attrs: argmemonly mustprogress nofree nounwind willreturn writeonly
declare void @llvm.memset.p0i8.i64(i8* nocapture writeonly, i8, i64, i1 immarg) #2

declare i32 @gets(...) local_unnamed_addr #3

; Function Attrs: argmemonly mustprogress nofree nounwind readonly willreturn
declare i64 @strlen(i8* nocapture) local_unnamed_addr #4

; Function Attrs: nofree nounwind
declare noundef i32 @printf(i8* nocapture noundef readonly, ...) local_unnamed_addr #5

; Function Attrs: argmemonly mustprogress nofree nosync nounwind willreturn
declare void @llvm.lifetime.end.p0i8(i64 immarg, i8* nocapture) #1


!llvm.module.flags = !{!0, !1, !2, !3}
!llvm.ident = !{!4}

!0 = !{i32 1, !"wchar_size", i32 4}
!1 = !{i32 7, !"PIC Level", i32 2}
!2 = !{i32 7, !"PIE Level", i32 2}
!3 = !{i32 7, !"uwtable", i32 1}
!4 = !{!"clang version 13.0.0"}
!5 = !{!6, !6, i64 0}
!6 = !{!"omnipotent char", !7, i64 0}
!7 = !{!"Simple C/C++ TBAA"}
!8 = distinct !{!8, !9}
!9 = !{!"llvm.loop.mustprogress"}
!10 = !{!11, !11, i64 0}
!11 = !{!"int", !6, i64 0}
!12 = distinct !{!12, !9}
!13 = distinct !{!13, !9}
